target datalayout = "e-m:e-p270:32:32-p271:32:32-p272:64:64-i64:64-i128:128-f80:128-n8:16:32:64-S128"
target triple = "x86_64-pc-linux-gnu"

%struct.SDL_KeyboardInstance = type { i32, ptr }

@SDL_keyboards = internal global ptr null, align 8
@SDL_keyboard_count = internal global i32 0, align 4

; Function Attrs: nounwind uwtable
define hidden ptr @SDL_GetKeyboards_REAL(ptr noundef %0) #0 {
  %2 = alloca ptr, align 8
  %3 = alloca i32, align 4
  %4 = alloca ptr, align 8
  store ptr %0, ptr %2, align 8
  call void @llvm.lifetime.start.p0(i64 4, ptr %3) #6
  call void @llvm.lifetime.start.p0(i64 8, ptr %4) #6
  %5 = load i32, ptr @SDL_keyboard_count, align 4
  %6 = add nsw i32 %5, 1
  %7 = sext i32 %6 to i64
  %8 = mul i64 %7, 4
  %9 = call noalias ptr @SDL_malloc_REAL(i64 noundef %8)
  store ptr %9, ptr %4, align 8
  %10 = load ptr, ptr %4, align 8
  %11 = icmp ne ptr %10, null
  br i1 %11, label %12, label %42

12:                                               ; preds = %1
  %13 = load ptr, ptr %2, align 8
  %14 = icmp ne ptr %13, null
  br i1 %14, label %15, label %18

15:                                               ; preds = %12
  %16 = load i32, ptr @SDL_keyboard_count, align 4
  %17 = load ptr, ptr %2, align 8
  store i32 %16, ptr %17, align 4
  br label %18

18:                                               ; preds = %15, %12
  store i32 0, ptr %3, align 4
  br label %19

19:                                               ; preds = %34, %18
  %20 = load i32, ptr %3, align 4
  %21 = load i32, ptr @SDL_keyboard_count, align 4
  %22 = icmp slt i32 %20, %21
  br i1 %22, label %23, label %37

23:                                               ; preds = %19
  %24 = load ptr, ptr @SDL_keyboards, align 8
  %25 = load i32, ptr %3, align 4
  %26 = sext i32 %25 to i64
  %27 = getelementptr inbounds %struct.SDL_KeyboardInstance, ptr %24, i64 %26
  %28 = getelementptr inbounds nuw %struct.SDL_KeyboardInstance, ptr %27, i32 0, i32 0
  %29 = load i32, ptr %28, align 8
  %30 = load ptr, ptr %4, align 8
  %31 = load i32, ptr %3, align 4
  %32 = sext i32 %31 to i64
  %33 = getelementptr inbounds i32, ptr %30, i64 %32
  store i32 %29, ptr %33, align 4
  br label %34

34:                                               ; preds = %23
  %35 = load i32, ptr %3, align 4
  %36 = add nsw i32 %35, 1
  store i32 %36, ptr %3, align 4
  br label %19, !llvm.loop !7

37:                                               ; preds = %19
  %38 = load ptr, ptr %4, align 8
  %39 = load i32, ptr %3, align 4
  %40 = sext i32 %39 to i64
  %41 = getelementptr inbounds i32, ptr %38, i64 %40
  store i32 0, ptr %41, align 4
  br label %48

42:                                               ; preds = %1
  %43 = load ptr, ptr %2, align 8
  %44 = icmp ne ptr %43, null
  br i1 %44, label %45, label %47

45:                                               ; preds = %42
  %46 = load ptr, ptr %2, align 8
  store i32 0, ptr %46, align 4
  br label %47

47:                                               ; preds = %45, %42
  br label %48

48:                                               ; preds = %47, %37
  %49 = load ptr, ptr %4, align 8
  call void @llvm.lifetime.end.p0(i64 8, ptr %4) #6
  call void @llvm.lifetime.end.p0(i64 4, ptr %3) #6
  ret ptr %49
}